; Function Attrs: mustprogress nounwind uwtable
define hidden void @_ZN12PeriodicTask14real_time_tickEi(i32 noundef %0) local_unnamed_addr #0 align 2 {
  %2 = load ptr, ptr @PeriodicTask_lock, align 8
  %.not.i.i = icmp eq ptr %2, null
  br i1 %.not.i.i, label %_ZN11MutexLockerC2EP5MutexNS0_18SafepointCheckFlagE.exit, label %3

3:                                                ; preds = %1
  tail call void @_ZN5Mutex28lock_without_safepoint_checkEv(ptr noundef nonnull align 8 dereferenceable(104) %2) #8
  br label %_ZN11MutexLockerC2EP5MutexNS0_18SafepointCheckFlagE.exit

_ZN11MutexLockerC2EP5MutexNS0_18SafepointCheckFlagE.exit: ; preds = %1, %3
  %4 = load i32, ptr @_ZN12PeriodicTask10_num_tasksE, align 4
  %5 = icmp sgt i32 %4, 0
  br i1 %5, label %.lr.ph, label %._crit_edge

.lr.ph:                                           ; preds = %_ZN11MutexLockerC2EP5MutexNS0_18SafepointCheckFlagE.exit
  %6 = sext i32 %0 to i64
  br label %7

7:                                                ; preds = %.lr.ph, %_ZN12PeriodicTask18execute_if_pendingEi.exit
  %8 = phi i32 [ %4, %.lr.ph ], [ %25, %_ZN12PeriodicTask18execute_if_pendingEi.exit ]
  %.012 = phi i32 [ 0, %.lr.ph ], [ %28, %_ZN12PeriodicTask18execute_if_pendingEi.exit ]
  %.0611 = phi i32 [ %4, %.lr.ph ], [ %spec.select, %_ZN12PeriodicTask18execute_if_pendingEi.exit ]
  %9 = sext i32 %.012 to i64
  %10 = getelementptr inbounds [10 x ptr], ptr @_ZN12PeriodicTask6_tasksE, i64 0, i64 %9
  %11 = load ptr, ptr %10, align 8
  %12 = getelementptr inbounds i8, ptr %11, i64 8
  %13 = load i32, ptr %12, align 8
  %14 = sext i32 %13 to i64
  %15 = add nsw i64 %14, %6
  %16 = getelementptr inbounds i8, ptr %11, i64 12
  %17 = load i32, ptr %16, align 4
  %18 = sext i32 %17 to i64
  %.not.i = icmp slt i64 %15, %18
  br i1 %.not.i, label %23, label %19

19:                                               ; preds = %7
  store i32 0, ptr %12, align 8
  %20 = load ptr, ptr %11, align 8
  %21 = getelementptr inbounds i8, ptr %20, i64 16
  %22 = load ptr, ptr %21, align 8
  tail call void %22(ptr noundef nonnull align 8 dereferenceable(16) %11) #8
  %.pre = load i32, ptr @_ZN12PeriodicTask10_num_tasksE, align 4
  br label %_ZN12PeriodicTask18execute_if_pendingEi.exit

23:                                               ; preds = %7
  %24 = add nsw i32 %13, %0
  store i32 %24, ptr %12, align 8
  br label %_ZN12PeriodicTask18execute_if_pendingEi.exit

_ZN12PeriodicTask18execute_if_pendingEi.exit:     ; preds = %19, %23
  %25 = phi i32 [ %.pre, %19 ], [ %8, %23 ]
  %26 = icmp slt i32 %25, %.0611
  %spec.select = tail call i32 @llvm.smin.i32(i32 %25, i32 %.0611)
  %27 = sext i1 %26 to i32
  %spec.select9 = add nsw i32 %.012, 1
  %28 = add nsw i32 %spec.select9, %27
  %29 = icmp slt i32 %28, %25
  br i1 %29, label %7, label %._crit_edge, !llvm.loop !6

._crit_edge:                                      ; preds = %_ZN12PeriodicTask18execute_if_pendingEi.exit, %_ZN11MutexLockerC2EP5MutexNS0_18SafepointCheckFlagE.exit
  br i1 %.not.i.i, label %_ZN11MutexLockerD2Ev.exit, label %30

30:                                               ; preds = %._crit_edge
  tail call void @_ZN5Mutex6unlockEv(ptr noundef nonnull align 8 dereferenceable(104) %2) #8
  br label %_ZN11MutexLockerD2Ev.exit

_ZN11MutexLockerD2Ev.exit:                        ; preds = %._crit_edge, %30
  ret void
}